target datalayout = "e-m:e-p270:32:32-p271:32:32-p272:64:64-i64:64-i128:128-f80:128-n8:16:32:64-S128"
target triple = "x86_64-pc-linux-gnu"

%struct.Rwr_Node_t_ = type <{ i32, i32, i16, i16, i16, i32, [6 x i8], ptr, ptr, ptr }>

@.str.7 = private unnamed_addr constant [7 x i8] c"%5d : \00", align 1
@.str.8 = private unnamed_addr constant [5 x i8] c" tt=\00", align 1
@.str.9 = private unnamed_addr constant [8 x i8] c" lev=%d\00", align 1
@.str.10 = private unnamed_addr constant [8 x i8] c" vol=%d\00", align 1
@.str.11 = private unnamed_addr constant [3 x i8] c"  \00", align 1
@.str.12 = private unnamed_addr constant [2 x i8] c"\0A\00", align 1

; Function Attrs: nounwind uwtable
define void @Rwr_NodePrint(ptr noundef %0, ptr noundef %1, ptr noundef %2) #0 {
  %4 = alloca ptr, align 8
  %5 = alloca ptr, align 8
  %6 = alloca ptr, align 8
  %7 = alloca i32, align 4
  store ptr %0, ptr %4, align 8
  store ptr %1, ptr %5, align 8
  store ptr %2, ptr %6, align 8
  %8 = load ptr, ptr %4, align 8
  %9 = load ptr, ptr %6, align 8
  %10 = getelementptr inbounds %struct.Rwr_Node_t_, ptr %9, i32 0, i32 0
  %11 = load i32, ptr %10, align 8
  %12 = call i32 (ptr, ptr, ...) @fprintf(ptr noundef %8, ptr noundef @.str.7, i32 noundef %11) #3
  %13 = load ptr, ptr %6, align 8
  %14 = getelementptr inbounds %struct.Rwr_Node_t_, ptr %13, i32 0, i32 5
  %15 = load i32, ptr %14, align 2
  %16 = and i32 %15, 65535
  store i32 %16, ptr %7, align 4
  %17 = load ptr, ptr %4, align 8
  call void @Extra_PrintHex(ptr noundef %17, ptr noundef %7, i32 noundef 4)
  %18 = load ptr, ptr %4, align 8
  %19 = call i32 (ptr, ptr, ...) @fprintf(ptr noundef %18, ptr noundef @.str.8) #3
  %20 = load ptr, ptr %4, align 8
  call void @Extra_PrintBinary(ptr noundef %20, ptr noundef %7, i32 noundef 16)
  %21 = load ptr, ptr %4, align 8
  %22 = load ptr, ptr %6, align 8
  %23 = getelementptr inbounds %struct.Rwr_Node_t_, ptr %22, i32 0, i32 5
  %24 = load i32, ptr %23, align 2
  %25 = lshr i32 %24, 24
  %26 = and i32 %25, 63
  %27 = call i32 (ptr, ptr, ...) @fprintf(ptr noundef %21, ptr noundef @.str.9, i32 noundef %26) #3
  %28 = load ptr, ptr %4, align 8
  %29 = load ptr, ptr %6, align 8
  %30 = getelementptr inbounds %struct.Rwr_Node_t_, ptr %29, i32 0, i32 5
  %31 = load i32, ptr %30, align 2
  %32 = lshr i32 %31, 16
  %33 = and i32 %32, 255
  %34 = call i32 (ptr, ptr, ...) @fprintf(ptr noundef %28, ptr noundef @.str.10, i32 noundef %33) #3
  %35 = load ptr, ptr %4, align 8
  %36 = call i32 (ptr, ptr, ...) @fprintf(ptr noundef %35, ptr noundef @.str.11) #3
  %37 = load ptr, ptr %4, align 8
  %38 = load ptr, ptr %6, align 8
  call void @Rwr_NodePrint_rec(ptr noundef %37, ptr noundef %38)
  %39 = load ptr, ptr %4, align 8
  %40 = call i32 (ptr, ptr, ...) @fprintf(ptr noundef %39, ptr noundef @.str.12) #3
  ret void
}