; Function Attrs: nounwind uwtable
define void @Rwr_NodePrint(ptr noundef %0, ptr noundef readnone captures(none) %1, ptr noundef readonly captures(none) %2) local_unnamed_addr #1 {
  %4 = alloca i32, align 4
  %5 = load i32, ptr %2, align 8
  %6 = tail call i32 (ptr, ptr, ...) @fprintf(ptr noundef %0, ptr noundef nonnull @.str.7, i32 noundef %5) #7
  %7 = getelementptr inbounds nuw i8, ptr %2, i64 14
  %8 = load i32, ptr %7, align 2
  %9 = and i32 %8, 65535
  store i32 %9, ptr %4, align 4
  call void @Extra_PrintHex(ptr noundef %0, ptr noundef nonnull %4, i32 noundef 4) #7
  %10 = call i64 @fwrite(ptr nonnull @.str.8, i64 4, i64 1, ptr %0)
  call void @Extra_PrintBinary(ptr noundef %0, ptr noundef nonnull %4, i32 noundef 16) #7
  %11 = load i32, ptr %7, align 2
  %12 = lshr i32 %11, 24
  %13 = and i32 %12, 63
  %14 = call i32 (ptr, ptr, ...) @fprintf(ptr noundef %0, ptr noundef nonnull @.str.9, i32 noundef %13) #7
  %15 = load i32, ptr %7, align 2
  %16 = lshr i32 %15, 16
  %17 = and i32 %16, 255
  %18 = call i32 (ptr, ptr, ...) @fprintf(ptr noundef %0, ptr noundef nonnull @.str.10, i32 noundef %17) #7
  %19 = call i64 @fwrite(ptr nonnull @.str.11, i64 2, i64 1, ptr %0)
  call void @Rwr_NodePrint_rec(ptr noundef %0, ptr noundef nonnull %2)
  %fputc = call i32 @fputc(i32 10, ptr %0)
  ret void
}